target datalayout = "e-m:e-p270:32:32-p271:32:32-p272:64:64-i64:64-i128:128-f80:128-n8:16:32:64-S128"
target triple = "x86_64-pc-linux-gnu"

%struct.AVCodecContext = type { ptr, i32, i32, ptr, i32, i32, ptr, ptr, ptr, i64, i32, i32, ptr, i32, %struct.AVRational, %struct.AVRational, %struct.AVRational, i32, i32, i32, i32, i32, %struct.AVRational, i32, i32, i32, i32, i32, i32, i32, i32, i32, i32, i32, ptr, ptr, i32, float, float, float, float, float, float, float, float, float, i32, i32, i32, i32, i32, i32, i32, i32, i32, i32, i32, i32, ptr, ptr, ptr, i32, i32, i32, i32, i32, i32, i32, i32, i32, i32, %struct.AVChannelLayout, i32, i32, i32, i32, i32, i32, i32, i32, ptr, i32, i32, i32, float, float, i32, i32, i32, i32, i32, ptr, i64, i64, float, float, i32, i32, ptr, ptr, i32, i32, i32, i32, i32, ptr, ptr, ptr, ptr, i32, i32, [8 x i64], i32, i32, i32, i32, i32, i32, i32, ptr, ptr, i32, i32, i32, i32, i32, i32, i32, i32, i32, i32, ptr, ptr, i32, i32, ptr, ptr, ptr, ptr, i32, i32, i64, i32, i32, i64, ptr, i64, ptr, i32, ptr, i32 }
%struct.AVRational = type { i32, i32 }
%struct.AVChannelLayout = type { i32, i32, %union.anon.0, ptr }
%union.anon.0 = type { i64 }
%struct.ThreadData = type { ptr, ptr, i32 }
%struct.AVFrame = type { [8 x ptr], [8 x i32], ptr, i32, i32, i32, i32, i32, %struct.AVRational, i64, i64, %struct.AVRational, i32, ptr, i32, i32, [8 x ptr], ptr, i32, ptr, i32, i32, i32, i32, i32, i32, i32, i64, ptr, i32, ptr, ptr, i64, i64, i64, i64, ptr, %struct.AVChannelLayout, i64 }

; Function Attrs: alwaysinline nounwind willreturn memory(none) uwtable
define internal i32 @av_clip_c(i32 noundef %0, i32 noundef %1, i32 noundef %2) #4 {
  %4 = alloca i32, align 4
  %5 = alloca i32, align 4
  %6 = alloca i32, align 4
  %7 = alloca i32, align 4
  store i32 %0, ptr %5, align 4, !tbaa !42
  store i32 %1, ptr %6, align 4, !tbaa !42
  store i32 %2, ptr %7, align 4, !tbaa !42
  %8 = load i32, ptr %5, align 4, !tbaa !42
  %9 = load i32, ptr %6, align 4, !tbaa !42
  %10 = icmp slt i32 %8, %9
  br i1 %10, label %11, label %13

11:                                               ; preds = %3
  %12 = load i32, ptr %6, align 4, !tbaa !42
  store i32 %12, ptr %4, align 4
  br label %21

13:                                               ; preds = %3
  %14 = load i32, ptr %5, align 4, !tbaa !42
  %15 = load i32, ptr %7, align 4, !tbaa !42
  %16 = icmp sgt i32 %14, %15
  br i1 %16, label %17, label %19

17:                                               ; preds = %13
  %18 = load i32, ptr %7, align 4, !tbaa !42
  store i32 %18, ptr %4, align 4
  br label %21

19:                                               ; preds = %13
  %20 = load i32, ptr %5, align 4, !tbaa !42
  store i32 %20, ptr %4, align 4
  br label %21

21:                                               ; preds = %19, %17, %11
  %22 = load i32, ptr %4, align 4
  ret i32 %22
}

; Function Attrs: nounwind uwtable
define internal i32 @v410_decode_slice(ptr noundef %0, ptr noundef %1, i32 noundef %2, i32 noundef %3) #1 {
  %5 = alloca ptr, align 8
  %6 = alloca ptr, align 8
  %7 = alloca i32, align 4
  %8 = alloca i32, align 4
  %9 = alloca ptr, align 8
  %10 = alloca ptr, align 8
  %11 = alloca i32, align 4
  %12 = alloca i32, align 4
  %13 = alloca i32, align 4
  %14 = alloca i32, align 4
  %15 = alloca ptr, align 8
  %16 = alloca ptr, align 8
  %17 = alloca ptr, align 8
  %18 = alloca ptr, align 8
  %19 = alloca i32, align 4
  %20 = alloca i32, align 4
  %21 = alloca i32, align 4
  store ptr %0, ptr %5, align 8, !tbaa !4
  store ptr %1, ptr %6, align 8, !tbaa !49
  store i32 %2, ptr %7, align 4, !tbaa !42
  store i32 %3, ptr %8, align 4, !tbaa !42
  call void @llvm.lifetime.start.p0(i64 8, ptr %9) #5
  %22 = load ptr, ptr %6, align 8, !tbaa !49
  store ptr %22, ptr %9, align 8, !tbaa !50
  call void @llvm.lifetime.start.p0(i64 8, ptr %10) #5
  %23 = load ptr, ptr %9, align 8, !tbaa !50
  %24 = getelementptr inbounds nuw %struct.ThreadData, ptr %23, i32 0, i32 0
  %25 = load ptr, ptr %24, align 8, !tbaa !47
  store ptr %25, ptr %10, align 8, !tbaa !32
  call void @llvm.lifetime.start.p0(i64 4, ptr %11) #5
  %26 = load ptr, ptr %9, align 8, !tbaa !50
  %27 = getelementptr inbounds nuw %struct.ThreadData, ptr %26, i32 0, i32 2
  %28 = load i32, ptr %27, align 8, !tbaa !43
  store i32 %28, ptr %11, align 4, !tbaa !42
  call void @llvm.lifetime.start.p0(i64 4, ptr %12) #5
  %29 = load ptr, ptr %5, align 8, !tbaa !4
  %30 = getelementptr inbounds nuw %struct.AVCodecContext, ptr %29, i32 0, i32 116
  %31 = load i32, ptr %30, align 8, !tbaa !40
  %32 = load ptr, ptr %5, align 8, !tbaa !4
  %33 = getelementptr inbounds nuw %struct.AVCodecContext, ptr %32, i32 0, i32 19
  %34 = load i32, ptr %33, align 4, !tbaa !41
  %35 = sdiv i32 %34, 4
  %36 = call i32 @av_clip_c(i32 noundef %31, i32 noundef 1, i32 noundef %35) #6
  store i32 %36, ptr %12, align 4, !tbaa !42
  call void @llvm.lifetime.start.p0(i64 4, ptr %13) #5
  %37 = load ptr, ptr %5, align 8, !tbaa !4
  %38 = getelementptr inbounds nuw %struct.AVCodecContext, ptr %37, i32 0, i32 19
  %39 = load i32, ptr %38, align 4, !tbaa !41
  %40 = load i32, ptr %7, align 4, !tbaa !42
  %41 = mul nsw i32 %39, %40
  %42 = load i32, ptr %12, align 4, !tbaa !42
  %43 = sdiv i32 %41, %42
  store i32 %43, ptr %13, align 4, !tbaa !42
  call void @llvm.lifetime.start.p0(i64 4, ptr %14) #5
  %44 = load ptr, ptr %5, align 8, !tbaa !4
  %45 = getelementptr inbounds nuw %struct.AVCodecContext, ptr %44, i32 0, i32 19
  %46 = load i32, ptr %45, align 4, !tbaa !41
  %47 = load i32, ptr %7, align 4, !tbaa !42
  %48 = add nsw i32 %47, 1
  %49 = mul nsw i32 %46, %48
  %50 = load i32, ptr %12, align 4, !tbaa !42
  %51 = sdiv i32 %49, %50
  store i32 %51, ptr %14, align 4, !tbaa !42
  call void @llvm.lifetime.start.p0(i64 8, ptr %15) #5
  %52 = load ptr, ptr %9, align 8, !tbaa !50
  %53 = getelementptr inbounds nuw %struct.ThreadData, ptr %52, i32 0, i32 1
  %54 = load ptr, ptr %53, align 8, !tbaa !46
  %55 = load i32, ptr %11, align 4, !tbaa !42
  %56 = load i32, ptr %13, align 4, !tbaa !42
  %57 = mul nsw i32 %55, %56
  %58 = sext i32 %57 to i64
  %59 = getelementptr inbounds i8, ptr %54, i64 %58
  store ptr %59, ptr %15, align 8, !tbaa !39
  call void @llvm.lifetime.start.p0(i64 8, ptr %16) #5
  call void @llvm.lifetime.start.p0(i64 8, ptr %17) #5
  call void @llvm.lifetime.start.p0(i64 8, ptr %18) #5
  call void @llvm.lifetime.start.p0(i64 4, ptr %19) #5
  call void @llvm.lifetime.start.p0(i64 4, ptr %20) #5
  call void @llvm.lifetime.start.p0(i64 4, ptr %21) #5
  %60 = load ptr, ptr %10, align 8, !tbaa !32
  %61 = getelementptr inbounds nuw %struct.AVFrame, ptr %60, i32 0, i32 0
  %62 = getelementptr inbounds [8 x ptr], ptr %61, i64 0, i64 0
  %63 = load ptr, ptr %62, align 8, !tbaa !39
  %64 = load i32, ptr %13, align 4, !tbaa !42
  %65 = load ptr, ptr %10, align 8, !tbaa !32
  %66 = getelementptr inbounds nuw %struct.AVFrame, ptr %65, i32 0, i32 1
  %67 = getelementptr inbounds [8 x i32], ptr %66, i64 0, i64 0
  %68 = load i32, ptr %67, align 8, !tbaa !42
  %69 = ashr i32 %68, 1
  %70 = mul nsw i32 %64, %69
  %71 = sext i32 %70 to i64
  %72 = getelementptr inbounds i16, ptr %63, i64 %71
  store ptr %72, ptr %16, align 8, !tbaa !52
  %73 = load ptr, ptr %10, align 8, !tbaa !32
  %74 = getelementptr inbounds nuw %struct.AVFrame, ptr %73, i32 0, i32 0
  %75 = getelementptr inbounds [8 x ptr], ptr %74, i64 0, i64 1
  %76 = load ptr, ptr %75, align 8, !tbaa !39
  %77 = load i32, ptr %13, align 4, !tbaa !42
  %78 = load ptr, ptr %10, align 8, !tbaa !32
  %79 = getelementptr inbounds nuw %struct.AVFrame, ptr %78, i32 0, i32 1
  %80 = getelementptr inbounds [8 x i32], ptr %79, i64 0, i64 1
  %81 = load i32, ptr %80, align 4, !tbaa !42
  %82 = ashr i32 %81, 1
  %83 = mul nsw i32 %77, %82
  %84 = sext i32 %83 to i64
  %85 = getelementptr inbounds i16, ptr %76, i64 %84
  store ptr %85, ptr %17, align 8, !tbaa !52
  %86 = load ptr, ptr %10, align 8, !tbaa !32
  %87 = getelementptr inbounds nuw %struct.AVFrame, ptr %86, i32 0, i32 0
  %88 = getelementptr inbounds [8 x ptr], ptr %87, i64 0, i64 2
  %89 = load ptr, ptr %88, align 8, !tbaa !39
  %90 = load i32, ptr %13, align 4, !tbaa !42
  %91 = load ptr, ptr %10, align 8, !tbaa !32
  %92 = getelementptr inbounds nuw %struct.AVFrame, ptr %91, i32 0, i32 1
  %93 = getelementptr inbounds [8 x i32], ptr %92, i64 0, i64 2
  %94 = load i32, ptr %93, align 8, !tbaa !42
  %95 = ashr i32 %94, 1
  %96 = mul nsw i32 %90, %95
  %97 = sext i32 %96 to i64
  %98 = getelementptr inbounds i16, ptr %89, i64 %97
  store ptr %98, ptr %18, align 8, !tbaa !52
  %99 = load i32, ptr %13, align 4, !tbaa !42
  store i32 %99, ptr %20, align 4, !tbaa !42
  br label %100

100:                                              ; preds = %167, %4
  %101 = load i32, ptr %20, align 4, !tbaa !42
  %102 = load i32, ptr %14, align 4, !tbaa !42
  %103 = icmp slt i32 %101, %102
  br i1 %103, label %104, label %170

104:                                              ; preds = %100
  store i32 0, ptr %21, align 4, !tbaa !42
  br label %105

105:                                              ; preds = %139, %104
  %106 = load i32, ptr %21, align 4, !tbaa !42
  %107 = load ptr, ptr %5, align 8, !tbaa !4
  %108 = getelementptr inbounds nuw %struct.AVCodecContext, ptr %107, i32 0, i32 18
  %109 = load i32, ptr %108, align 8, !tbaa !30
  %110 = icmp slt i32 %106, %109
  br i1 %110, label %111, label %142

111:                                              ; preds = %105
  %112 = load ptr, ptr %15, align 8, !tbaa !39
  %113 = load i32, ptr %112, align 1, !tbaa !53
  store i32 %113, ptr %19, align 4, !tbaa !42
  %114 = load i32, ptr %19, align 4, !tbaa !42
  %115 = lshr i32 %114, 2
  %116 = and i32 %115, 1023
  %117 = trunc i32 %116 to i16
  %118 = load ptr, ptr %17, align 8, !tbaa !52
  %119 = load i32, ptr %21, align 4, !tbaa !42
  %120 = sext i32 %119 to i64
  %121 = getelementptr inbounds i16, ptr %118, i64 %120
  store i16 %117, ptr %121, align 2, !tbaa !54
  %122 = load i32, ptr %19, align 4, !tbaa !42
  %123 = lshr i32 %122, 12
  %124 = and i32 %123, 1023
  %125 = trunc i32 %124 to i16
  %126 = load ptr, ptr %16, align 8, !tbaa !52
  %127 = load i32, ptr %21, align 4, !tbaa !42
  %128 = sext i32 %127 to i64
  %129 = getelementptr inbounds i16, ptr %126, i64 %128
  store i16 %125, ptr %129, align 2, !tbaa !54
  %130 = load i32, ptr %19, align 4, !tbaa !42
  %131 = lshr i32 %130, 22
  %132 = trunc i32 %131 to i16
  %133 = load ptr, ptr %18, align 8, !tbaa !52
  %134 = load i32, ptr %21, align 4, !tbaa !42
  %135 = sext i32 %134 to i64
  %136 = getelementptr inbounds i16, ptr %133, i64 %135
  store i16 %132, ptr %136, align 2, !tbaa !54
  %137 = load ptr, ptr %15, align 8, !tbaa !39
  %138 = getelementptr inbounds i8, ptr %137, i64 4
  store ptr %138, ptr %15, align 8, !tbaa !39
  br label %139

139:                                              ; preds = %111
  %140 = load i32, ptr %21, align 4, !tbaa !42
  %141 = add nsw i32 %140, 1
  store i32 %141, ptr %21, align 4, !tbaa !42
  br label %105, !llvm.loop !56

142:                                              ; preds = %105
  %143 = load ptr, ptr %10, align 8, !tbaa !32
  %144 = getelementptr inbounds nuw %struct.AVFrame, ptr %143, i32 0, i32 1
  %145 = getelementptr inbounds [8 x i32], ptr %144, i64 0, i64 0
  %146 = load i32, ptr %145, align 8, !tbaa !42
  %147 = ashr i32 %146, 1
  %148 = load ptr, ptr %16, align 8, !tbaa !52
  %149 = sext i32 %147 to i64
  %150 = getelementptr inbounds i16, ptr %148, i64 %149
  store ptr %150, ptr %16, align 8, !tbaa !52
  %151 = load ptr, ptr %10, align 8, !tbaa !32
  %152 = getelementptr inbounds nuw %struct.AVFrame, ptr %151, i32 0, i32 1
  %153 = getelementptr inbounds [8 x i32], ptr %152, i64 0, i64 1
  %154 = load i32, ptr %153, align 4, !tbaa !42
  %155 = ashr i32 %154, 1
  %156 = load ptr, ptr %17, align 8, !tbaa !52
  %157 = sext i32 %155 to i64
  %158 = getelementptr inbounds i16, ptr %156, i64 %157
  store ptr %158, ptr %17, align 8, !tbaa !52
  %159 = load ptr, ptr %10, align 8, !tbaa !32
  %160 = getelementptr inbounds nuw %struct.AVFrame, ptr %159, i32 0, i32 1
  %161 = getelementptr inbounds [8 x i32], ptr %160, i64 0, i64 2
  %162 = load i32, ptr %161, align 8, !tbaa !42
  %163 = ashr i32 %162, 1
  %164 = load ptr, ptr %18, align 8, !tbaa !52
  %165 = sext i32 %163 to i64
  %166 = getelementptr inbounds i16, ptr %164, i64 %165
  store ptr %166, ptr %18, align 8, !tbaa !52
  br label %167

167:                                              ; preds = %142
  %168 = load i32, ptr %20, align 4, !tbaa !42
  %169 = add nsw i32 %168, 1
  store i32 %169, ptr %20, align 4, !tbaa !42
  br label %100, !llvm.loop !58

170:                                              ; preds = %100
  call void @llvm.lifetime.end.p0(i64 4, ptr %21) #5
  call void @llvm.lifetime.end.p0(i64 4, ptr %20) #5
  call void @llvm.lifetime.end.p0(i64 4, ptr %19) #5
  call void @llvm.lifetime.end.p0(i64 8, ptr %18) #5
  call void @llvm.lifetime.end.p0(i64 8, ptr %17) #5
  call void @llvm.lifetime.end.p0(i64 8, ptr %16) #5
  call void @llvm.lifetime.end.p0(i64 8, ptr %15) #5
  call void @llvm.lifetime.end.p0(i64 4, ptr %14) #5
  call void @llvm.lifetime.end.p0(i64 4, ptr %13) #5
  call void @llvm.lifetime.end.p0(i64 4, ptr %12) #5
  call void @llvm.lifetime.end.p0(i64 4, ptr %11) #5
  call void @llvm.lifetime.end.p0(i64 8, ptr %10) #5
  call void @llvm.lifetime.end.p0(i64 8, ptr %9) #5
  ret i32 0
}