; Function Attrs: nofree norecurse nosync nounwind memory(readwrite, inaccessiblemem: none) uwtable
define internal noundef i32 @v410_decode_slice(ptr noundef readonly captures(none) %0, ptr noundef readonly captures(none) %1, i32 noundef %2, i32 %3) #4 {
  %5 = getelementptr inbounds nuw i8, ptr %0, i64 656
  %6 = load i32, ptr %5, align 8, !tbaa !32
  %7 = getelementptr inbounds nuw i8, ptr %0, i64 116
  %8 = load i32, ptr %7, align 4, !tbaa !33
  %9 = sdiv i32 %8, 4
  %10 = icmp slt i32 %6, 1
  %..i = tail call i32 @llvm.smin.i32(i32 %6, i32 %9)
  %.0.i = select i1 %10, i32 1, i32 %..i
  %11 = mul nsw i32 %8, %2
  %12 = sdiv i32 %11, %.0.i
  %13 = add nsw i32 %2, 1
  %14 = mul nsw i32 %8, %13
  %15 = sdiv i32 %14, %.0.i
  %16 = icmp slt i32 %12, %15
  br i1 %16, label %.preheader.lr.ph, label %._crit_edge58

.preheader.lr.ph:                                 ; preds = %4
  %17 = load ptr, ptr %1, align 8, !tbaa !39
  %18 = getelementptr inbounds nuw i8, ptr %17, i64 72
  %19 = load i32, ptr %18, align 8, !tbaa !41
  %20 = ashr i32 %19, 1
  %21 = getelementptr inbounds nuw i8, ptr %17, i64 68
  %22 = load i32, ptr %21, align 4, !tbaa !41
  %23 = ashr i32 %22, 1
  %24 = getelementptr inbounds nuw i8, ptr %17, i64 64
  %25 = load i32, ptr %24, align 8, !tbaa !41
  %26 = ashr i32 %25, 1
  %27 = getelementptr inbounds nuw i8, ptr %0, i64 112
  %28 = load i32, ptr %27, align 8, !tbaa !28
  %29 = icmp sgt i32 %28, 0
  %30 = sext i32 %26 to i64
  %31 = sext i32 %23 to i64
  %32 = sext i32 %20 to i64
  br i1 %29, label %.preheader.us.preheader, label %._crit_edge58

.preheader.us.preheader:                          ; preds = %.preheader.lr.ph
  %33 = getelementptr inbounds nuw i8, ptr %1, i64 8
  %34 = load ptr, ptr %33, align 8, !tbaa !38
  %35 = getelementptr inbounds nuw i8, ptr %1, i64 16
  %36 = load i32, ptr %35, align 8, !tbaa !34
  %37 = mul nsw i32 %12, %36
  %38 = sext i32 %37 to i64
  %39 = getelementptr inbounds i8, ptr %34, i64 %38
  %40 = load ptr, ptr %17, align 8, !tbaa !42
  %41 = mul nsw i32 %26, %12
  %42 = sext i32 %41 to i64
  %43 = getelementptr inbounds i16, ptr %40, i64 %42
  %44 = getelementptr inbounds nuw i8, ptr %17, i64 8
  %45 = load ptr, ptr %44, align 8, !tbaa !42
  %46 = mul nsw i32 %23, %12
  %47 = sext i32 %46 to i64
  %48 = getelementptr inbounds i16, ptr %45, i64 %47
  %49 = getelementptr inbounds nuw i8, ptr %17, i64 16
  %50 = load ptr, ptr %49, align 8, !tbaa !42
  %51 = mul nsw i32 %20, %12
  %52 = sext i32 %51 to i64
  %53 = getelementptr inbounds i16, ptr %50, i64 %52
  %wide.trip.count = zext nneg i32 %28 to i64
  br label %.preheader.us

.preheader.us:                                    ; preds = %.preheader.us.preheader, %._crit_edge.us
  %.04657.us = phi i32 [ %71, %._crit_edge.us ], [ %12, %.preheader.us.preheader ]
  %.04756.us = phi ptr [ %67, %._crit_edge.us ], [ %39, %.preheader.us.preheader ]
  %.04855.us = phi ptr [ %70, %._crit_edge.us ], [ %53, %.preheader.us.preheader ]
  %.04954.us = phi ptr [ %69, %._crit_edge.us ], [ %48, %.preheader.us.preheader ]
  %.05053.us = phi ptr [ %68, %._crit_edge.us ], [ %43, %.preheader.us.preheader ]
  br label %54

54:                                               ; preds = %.preheader.us, %54
  %indvars.iv = phi i64 [ 0, %.preheader.us ], [ %indvars.iv.next, %54 ]
  %.151.us = phi ptr [ %.04756.us, %.preheader.us ], [ %67, %54 ]
  %55 = load i32, ptr %.151.us, align 1, !tbaa !43
  %56 = trunc i32 %55 to i16
  %57 = lshr i16 %56, 2
  %58 = and i16 %57, 1023
  %59 = getelementptr inbounds nuw i16, ptr %.04954.us, i64 %indvars.iv
  store i16 %58, ptr %59, align 2, !tbaa !44
  %60 = lshr i32 %55, 12
  %61 = trunc i32 %60 to i16
  %62 = and i16 %61, 1023
  %63 = getelementptr inbounds nuw i16, ptr %.05053.us, i64 %indvars.iv
  store i16 %62, ptr %63, align 2, !tbaa !44
  %64 = lshr i32 %55, 22
  %65 = trunc nuw nsw i32 %64 to i16
  %66 = getelementptr inbounds nuw i16, ptr %.04855.us, i64 %indvars.iv
  store i16 %65, ptr %66, align 2, !tbaa !44
  %67 = getelementptr inbounds nuw i8, ptr %.151.us, i64 4
  %indvars.iv.next = add nuw nsw i64 %indvars.iv, 1
  %exitcond.not = icmp eq i64 %indvars.iv.next, %wide.trip.count
  br i1 %exitcond.not, label %._crit_edge.us, label %54, !llvm.loop !46

._crit_edge.us:                                   ; preds = %54
  %68 = getelementptr inbounds i16, ptr %.05053.us, i64 %30
  %69 = getelementptr inbounds i16, ptr %.04954.us, i64 %31
  %70 = getelementptr inbounds i16, ptr %.04855.us, i64 %32
  %71 = add nsw i32 %.04657.us, 1
  %exitcond61.not = icmp eq i32 %71, %15
  br i1 %exitcond61.not, label %._crit_edge58, label %.preheader.us, !llvm.loop !48

._crit_edge58:                                    ; preds = %._crit_edge.us, %.preheader.lr.ph, %4
  ret i32 0
}